; Function Attrs: nounwind uwtable
define void @Gia_ManPrintDsdOne(ptr noundef %0, i32 noundef %1, i32 noundef %2) local_unnamed_addr #0 {
  %4 = tail call noalias dereferenceable_or_null(16) ptr @malloc(i64 noundef 16) #16
  %5 = getelementptr inbounds nuw i8, ptr %4, i64 4
  store i32 0, ptr %5, align 4, !tbaa !17
  store i32 100, ptr %4, align 8, !tbaa !12
  %6 = tail call noalias dereferenceable_or_null(100) ptr @malloc(i64 noundef 100) #16
  %7 = getelementptr inbounds nuw i8, ptr %4, i64 8
  store ptr %6, ptr %7, align 8, !tbaa !15
  tail call void @Dsd_TreePrint4(ptr noundef nonnull %4, ptr noundef %0, i32 noundef %1) #14
  %8 = icmp sgt i32 %2, 0
  br i1 %8, label %.lr.ph, label %._crit_edge

._crit_edge:                                      ; preds = %.lr.ph, %3
  %9 = tail call i32 @Dsd_TreeSuppSize(ptr noundef %0, i32 noundef %1) #14
  %10 = tail call i32 @Dsd_TreeNonDsdMax(ptr noundef %0, i32 noundef %1) #14
  %.val = load ptr, ptr %7, align 8, !tbaa !15
  %11 = tail call i32 (ptr, ...) @printf(ptr noundef nonnull dereferenceable(1) @.str.2, i32 noundef %9, i32 noundef %10, ptr noundef %.val)
  %12 = load ptr, ptr %7, align 8, !tbaa !15
  %.not.i = icmp eq ptr %12, null
  br i1 %.not.i, label %Vec_StrFree.exit, label %13

13:                                               ; preds = %._crit_edge
  tail call void @free(ptr noundef nonnull %12) #14
  br label %Vec_StrFree.exit

Vec_StrFree.exit:                                 ; preds = %._crit_edge, %13
  tail call void @free(ptr noundef nonnull %4) #14
  %14 = load ptr, ptr @stdout, align 8, !tbaa !67
  %15 = tail call i32 @fflush(ptr noundef %14)
  ret void

.lr.ph:                                           ; preds = %3, %.lr.ph
  %.011 = phi i32 [ %16, %.lr.ph ], [ 0, %3 ]
  %putchar = tail call i32 @putchar(i32 32)
  %16 = add nuw nsw i32 %.011, 1
  %exitcond.not = icmp eq i32 %16, %2
  br i1 %exitcond.not, label %._crit_edge, label %.lr.ph, !llvm.loop !70
}